target datalayout = "e-m:e-p270:32:32-p271:32:32-p272:64:64-i64:64-i128:128-f80:128-n8:16:32:64-S128"
target triple = "x86_64-pc-linux-gnu"

; Function Attrs: nounwind uwtable
define void @Dau_DecVarReplace(ptr noundef %0, ptr noundef %1, i32 noundef %2) #0 {
  %4 = alloca ptr, align 8
  %5 = alloca ptr, align 8
  %6 = alloca i32, align 4
  %7 = alloca i32, align 4
  store ptr %0, ptr %4, align 8, !tbaa !32
  store ptr %1, ptr %5, align 8, !tbaa !10
  store i32 %2, ptr %6, align 4, !tbaa !8
  call void @llvm.lifetime.start.p0(i64 4, ptr %7) #11
  store i32 0, ptr %7, align 4, !tbaa !8
  br label %8

8:                                                ; preds = %50, %3
  %9 = load ptr, ptr %4, align 8, !tbaa !32
  %10 = load i32, ptr %7, align 4, !tbaa !8
  %11 = sext i32 %10 to i64
  %12 = getelementptr inbounds i8, ptr %9, i64 %11
  %13 = load i8, ptr %12, align 1, !tbaa !34
  %14 = icmp ne i8 %13, 0
  br i1 %14, label %15, label %53

15:                                               ; preds = %8
  %16 = load ptr, ptr %4, align 8, !tbaa !32
  %17 = load i32, ptr %7, align 4, !tbaa !8
  %18 = sext i32 %17 to i64
  %19 = getelementptr inbounds i8, ptr %16, i64 %18
  %20 = load i8, ptr %19, align 1, !tbaa !34
  %21 = sext i8 %20 to i32
  %22 = icmp sge i32 %21, 97
  br i1 %22, label %23, label %49

23:                                               ; preds = %15
  %24 = load ptr, ptr %4, align 8, !tbaa !32
  %25 = load i32, ptr %7, align 4, !tbaa !8
  %26 = sext i32 %25 to i64
  %27 = getelementptr inbounds i8, ptr %24, i64 %26
  %28 = load i8, ptr %27, align 1, !tbaa !34
  %29 = sext i8 %28 to i32
  %30 = icmp sle i32 %29, 122
  br i1 %30, label %31, label %49

31:                                               ; preds = %23
  %32 = load ptr, ptr %5, align 8, !tbaa !10
  %33 = load ptr, ptr %4, align 8, !tbaa !32
  %34 = load i32, ptr %7, align 4, !tbaa !8
  %35 = sext i32 %34 to i64
  %36 = getelementptr inbounds i8, ptr %33, i64 %35
  %37 = load i8, ptr %36, align 1, !tbaa !34
  %38 = sext i8 %37 to i32
  %39 = sub nsw i32 %38, 97
  %40 = sext i32 %39 to i64
  %41 = getelementptr inbounds i32, ptr %32, i64 %40
  %42 = load i32, ptr %41, align 4, !tbaa !8
  %43 = add nsw i32 97, %42
  %44 = trunc i32 %43 to i8
  %45 = load ptr, ptr %4, align 8, !tbaa !32
  %46 = load i32, ptr %7, align 4, !tbaa !8
  %47 = sext i32 %46 to i64
  %48 = getelementptr inbounds i8, ptr %45, i64 %47
  store i8 %44, ptr %48, align 1, !tbaa !34
  br label %49

49:                                               ; preds = %31, %23, %15
  br label %50

50:                                               ; preds = %49
  %51 = load i32, ptr %7, align 4, !tbaa !8
  %52 = add nsw i32 %51, 1
  store i32 %52, ptr %7, align 4, !tbaa !8
  br label %8, !llvm.loop !57

53:                                               ; preds = %8
  call void @llvm.lifetime.end.p0(i64 4, ptr %7) #11
  ret void
}