; Function Attrs: nofree norecurse nosync nounwind memory(argmem: readwrite) uwtable
define void @Dau_DecVarReplace(ptr noundef captures(none) %0, ptr noundef readonly captures(none) %1, i32 noundef %2) local_unnamed_addr #0 {
  %invariant.gep = getelementptr i8, ptr %1, i64 -388
  %4 = load i8, ptr %0, align 1, !tbaa !31
  %.not13 = icmp eq i8 %4, 0
  br i1 %.not13, label %._crit_edge, label %.lr.ph

.lr.ph:                                           ; preds = %3, %13
  %indvars.iv = phi i64 [ %indvars.iv.next, %13 ], [ 0, %3 ]
  %5 = phi i8 [ %15, %13 ], [ %4, %3 ]
  %6 = add i8 %5, -97
  %or.cond = icmp ult i8 %6, 26
  br i1 %or.cond, label %7, label %13

7:                                                ; preds = %.lr.ph
  %8 = getelementptr inbounds nuw i8, ptr %0, i64 %indvars.iv
  %9 = zext nneg i8 %5 to i64
  %gep = getelementptr i32, ptr %invariant.gep, i64 %9
  %10 = load i32, ptr %gep, align 4, !tbaa !3
  %11 = trunc i32 %10 to i8
  %12 = add i8 %11, 97
  store i8 %12, ptr %8, align 1, !tbaa !31
  br label %13

13:                                               ; preds = %.lr.ph, %7
  %indvars.iv.next = add nuw nsw i64 %indvars.iv, 1
  %14 = getelementptr inbounds nuw i8, ptr %0, i64 %indvars.iv.next
  %15 = load i8, ptr %14, align 1, !tbaa !31
  %.not = icmp eq i8 %15, 0
  br i1 %.not, label %._crit_edge, label %.lr.ph, !llvm.loop !56

._crit_edge:                                      ; preds = %13, %3
  ret void
}